
simple-nesting/simple-nesting:     file format elf64-x86-64


Disassembly of section .init:

0000000000400450 <_init>:
  400450:	48 83 ec 08          	sub    $0x8,%rsp
  400454:	48 8b 05 9d 0b 20 00 	mov    0x200b9d(%rip),%rax        # 600ff8 <_DYNAMIC+0x1d0>
  40045b:	48 85 c0             	test   %rax,%rax
  40045e:	74 05                	je     400465 <_init+0x15>
  400460:	e8 4b 00 00 00       	callq  4004b0 <__gmon_start__@plt>
  400465:	48 83 c4 08          	add    $0x8,%rsp
  400469:	c3                   	retq   

Disassembly of section .plt:

0000000000400470 <puts@plt-0x10>:
  400470:	ff 35 92 0b 20 00    	pushq  0x200b92(%rip)        # 601008 <_GLOBAL_OFFSET_TABLE_+0x8>
  400476:	ff 25 94 0b 20 00    	jmpq   *0x200b94(%rip)        # 601010 <_GLOBAL_OFFSET_TABLE_+0x10>
  40047c:	0f 1f 40 00          	nopl   0x0(%rax)

0000000000400480 <puts@plt>:
  400480:	ff 25 92 0b 20 00    	jmpq   *0x200b92(%rip)        # 601018 <_GLOBAL_OFFSET_TABLE_+0x18>
  400486:	68 00 00 00 00       	pushq  $0x0
  40048b:	e9 e0 ff ff ff       	jmpq   400470 <_init+0x20>

0000000000400490 <printf@plt>:
  400490:	ff 25 8a 0b 20 00    	jmpq   *0x200b8a(%rip)        # 601020 <_GLOBAL_OFFSET_TABLE_+0x20>
  400496:	68 01 00 00 00       	pushq  $0x1
  40049b:	e9 d0 ff ff ff       	jmpq   400470 <_init+0x20>

00000000004004a0 <__libc_start_main@plt>:
  4004a0:	ff 25 82 0b 20 00    	jmpq   *0x200b82(%rip)        # 601028 <_GLOBAL_OFFSET_TABLE_+0x28>
  4004a6:	68 02 00 00 00       	pushq  $0x2
  4004ab:	e9 c0 ff ff ff       	jmpq   400470 <_init+0x20>

00000000004004b0 <__gmon_start__@plt>:
  4004b0:	ff 25 7a 0b 20 00    	jmpq   *0x200b7a(%rip)        # 601030 <_GLOBAL_OFFSET_TABLE_+0x30>
  4004b6:	68 03 00 00 00       	pushq  $0x3
  4004bb:	e9 b0 ff ff ff       	jmpq   400470 <_init+0x20>

00000000004004c0 <malloc@plt>:
  4004c0:	ff 25 72 0b 20 00    	jmpq   *0x200b72(%rip)        # 601038 <_GLOBAL_OFFSET_TABLE_+0x38>
  4004c6:	68 04 00 00 00       	pushq  $0x4
  4004cb:	e9 a0 ff ff ff       	jmpq   400470 <_init+0x20>

Disassembly of section .text:

00000000004004d0 <_start>:
  4004d0:	31 ed                	xor    %ebp,%ebp
  4004d2:	49 89 d1             	mov    %rdx,%r9
  4004d5:	5e                   	pop    %rsi
  4004d6:	48 89 e2             	mov    %rsp,%rdx
  4004d9:	48 83 e4 f0          	and    $0xfffffffffffffff0,%rsp
  4004dd:	50                   	push   %rax
  4004de:	54                   	push   %rsp
  4004df:	49 c7 c0 10 07 40 00 	mov    $0x400710,%r8
  4004e6:	48 c7 c1 a0 06 40 00 	mov    $0x4006a0,%rcx
  4004ed:	48 c7 c7 bd 05 40 00 	mov    $0x4005bd,%rdi
  4004f4:	e8 a7 ff ff ff       	callq  4004a0 <__libc_start_main@plt>
  4004f9:	f4                   	hlt    
  4004fa:	66 0f 1f 44 00 00    	nopw   0x0(%rax,%rax,1)

0000000000400500 <deregister_tm_clones>:
  400500:	b8 57 10 60 00       	mov    $0x601057,%eax
  400505:	55                   	push   %rbp
  400506:	48 2d 50 10 60 00    	sub    $0x601050,%rax
  40050c:	48 83 f8 0e          	cmp    $0xe,%rax
  400510:	48 89 e5             	mov    %rsp,%rbp
  400513:	77 02                	ja     400517 <deregister_tm_clones+0x17>
  400515:	5d                   	pop    %rbp
  400516:	c3                   	retq   
  400517:	b8 00 00 00 00       	mov    $0x0,%eax
  40051c:	48 85 c0             	test   %rax,%rax
  40051f:	74 f4                	je     400515 <deregister_tm_clones+0x15>
  400521:	5d                   	pop    %rbp
  400522:	bf 50 10 60 00       	mov    $0x601050,%edi
  400527:	ff e0                	jmpq   *%rax
  400529:	0f 1f 80 00 00 00 00 	nopl   0x0(%rax)

0000000000400530 <register_tm_clones>:
  400530:	b8 50 10 60 00       	mov    $0x601050,%eax
  400535:	55                   	push   %rbp
  400536:	48 2d 50 10 60 00    	sub    $0x601050,%rax
  40053c:	48 c1 f8 03          	sar    $0x3,%rax
  400540:	48 89 e5             	mov    %rsp,%rbp
  400543:	48 89 c2             	mov    %rax,%rdx
  400546:	48 c1 ea 3f          	shr    $0x3f,%rdx
  40054a:	48 01 d0             	add    %rdx,%rax
  40054d:	48 d1 f8             	sar    %rax
  400550:	75 02                	jne    400554 <register_tm_clones+0x24>
  400552:	5d                   	pop    %rbp
  400553:	c3                   	retq   
  400554:	ba 00 00 00 00       	mov    $0x0,%edx
  400559:	48 85 d2             	test   %rdx,%rdx
  40055c:	74 f4                	je     400552 <register_tm_clones+0x22>
  40055e:	5d                   	pop    %rbp
  40055f:	48 89 c6             	mov    %rax,%rsi
  400562:	bf 50 10 60 00       	mov    $0x601050,%edi
  400567:	ff e2                	jmpq   *%rdx
  400569:	0f 1f 80 00 00 00 00 	nopl   0x0(%rax)

0000000000400570 <__do_global_dtors_aux>:
  400570:	80 3d d9 0a 20 00 00 	cmpb   $0x0,0x200ad9(%rip)        # 601050 <__TMC_END__>
  400577:	75 11                	jne    40058a <__do_global_dtors_aux+0x1a>
  400579:	55                   	push   %rbp
  40057a:	48 89 e5             	mov    %rsp,%rbp
  40057d:	e8 7e ff ff ff       	callq  400500 <deregister_tm_clones>
  400582:	5d                   	pop    %rbp
  400583:	c6 05 c6 0a 20 00 01 	movb   $0x1,0x200ac6(%rip)        # 601050 <__TMC_END__>
  40058a:	f3 c3                	repz retq 
  40058c:	0f 1f 40 00          	nopl   0x0(%rax)

0000000000400590 <frame_dummy>:
  400590:	48 83 3d 88 08 20 00 	cmpq   $0x0,0x200888(%rip)        # 600e20 <__JCR_END__>
  400597:	00 
  400598:	74 1e                	je     4005b8 <frame_dummy+0x28>
  40059a:	b8 00 00 00 00       	mov    $0x0,%eax
  40059f:	48 85 c0             	test   %rax,%rax
  4005a2:	74 14                	je     4005b8 <frame_dummy+0x28>
  4005a4:	55                   	push   %rbp
  4005a5:	bf 20 0e 60 00       	mov    $0x600e20,%edi
  4005aa:	48 89 e5             	mov    %rsp,%rbp
  4005ad:	ff d0                	callq  *%rax
  4005af:	5d                   	pop    %rbp
  4005b0:	e9 7b ff ff ff       	jmpq   400530 <register_tm_clones>
  4005b5:	0f 1f 00             	nopl   (%rax)
  4005b8:	e9 73 ff ff ff       	jmpq   400530 <register_tm_clones>

00000000004005bd <main>:
typedef struct _barrier_node {
	int payload_barrier;
	link_node list;
} barrier_node;

int main(int argc, char **argv) {    
  4005bd:	55                   	push   %rbp
  4005be:	48 89 e5             	mov    %rsp,%rbp
  4005c1:	48 83 ec 30          	sub    $0x30,%rsp
  4005c5:	89 7d dc             	mov    %edi,-0x24(%rbp)
  4005c8:	48 89 75 d0          	mov    %rsi,-0x30(%rbp)

	int i;
	printf("Creating list\n");
  4005cc:	bf 24 07 40 00       	mov    $0x400724,%edi
  4005d1:	e8 aa fe ff ff       	callq  400480 <puts@plt>
	barrier_node *head = malloc(sizeof(barrier_node));
  4005d6:	bf 18 00 00 00       	mov    $0x18,%edi
  4005db:	e8 e0 fe ff ff       	callq  4004c0 <malloc@plt>
  4005e0:	48 89 45 f0          	mov    %rax,-0x10(%rbp)
	head->list.payload = 0;
  4005e4:	48 8b 45 f0          	mov    -0x10(%rbp),%rax
  4005e8:	c7 40 08 00 00 00 00 	movl   $0x0,0x8(%rax)

	link_node *iter = &(head->list);	
  4005ef:	48 8b 45 f0          	mov    -0x10(%rbp),%rax
  4005f3:	48 83 c0 08          	add    $0x8,%rax
  4005f7:	48 89 45 e8          	mov    %rax,-0x18(%rbp)
	for(i = 1; i < 10; i++){
  4005fb:	c7 45 e4 01 00 00 00 	movl   $0x1,-0x1c(%rbp)
  400602:	eb 49                	jmp    40064d <main+0x90>
		printf("Insert node\n");
  400604:	bf 32 07 40 00       	mov    $0x400732,%edi
  400609:	e8 72 fe ff ff       	callq  400480 <puts@plt>
		link_node *new = malloc(sizeof(link_node));
  40060e:	bf 10 00 00 00       	mov    $0x10,%edi
  400613:	e8 a8 fe ff ff       	callq  4004c0 <malloc@plt>
  400618:	48 89 45 f8          	mov    %rax,-0x8(%rbp)
		new->next = NULL;
  40061c:	48 8b 45 f8          	mov    -0x8(%rbp),%rax
  400620:	48 c7 40 08 00 00 00 	movq   $0x0,0x8(%rax)
  400627:	00 
		new->payload = i;
  400628:	48 8b 45 f8          	mov    -0x8(%rbp),%rax
  40062c:	8b 55 e4             	mov    -0x1c(%rbp),%edx
  40062f:	89 10                	mov    %edx,(%rax)
		iter->next = new;
  400631:	48 8b 45 e8          	mov    -0x18(%rbp),%rax
  400635:	48 8b 55 f8          	mov    -0x8(%rbp),%rdx
  400639:	48 89 50 08          	mov    %rdx,0x8(%rax)
		iter = iter->next;
  40063d:	48 8b 45 e8          	mov    -0x18(%rbp),%rax
  400641:	48 8b 40 08          	mov    0x8(%rax),%rax
  400645:	48 89 45 e8          	mov    %rax,-0x18(%rbp)
	printf("Creating list\n");
	barrier_node *head = malloc(sizeof(barrier_node));
	head->list.payload = 0;

	link_node *iter = &(head->list);	
	for(i = 1; i < 10; i++){
  400649:	83 45 e4 01          	addl   $0x1,-0x1c(%rbp)
  40064d:	83 7d e4 09          	cmpl   $0x9,-0x1c(%rbp)
  400651:	7e b1                	jle    400604 <main+0x47>
		new->payload = i;
		iter->next = new;
		iter = iter->next;
	}

	printf("Printing all nodes\n");
  400653:	bf 3e 07 40 00       	mov    $0x40073e,%edi
  400658:	e8 23 fe ff ff       	callq  400480 <puts@plt>
	iter = &(head->list);	
  40065d:	48 8b 45 f0          	mov    -0x10(%rbp),%rax
  400661:	48 83 c0 08          	add    $0x8,%rax
  400665:	48 89 45 e8          	mov    %rax,-0x18(%rbp)
	while(iter){
  400669:	eb 23                	jmp    40068e <main+0xd1>
		printf("node: %d\n", iter->payload);
  40066b:	48 8b 45 e8          	mov    -0x18(%rbp),%rax
  40066f:	8b 00                	mov    (%rax),%eax
  400671:	89 c6                	mov    %eax,%esi
  400673:	bf 51 07 40 00       	mov    $0x400751,%edi
  400678:	b8 00 00 00 00       	mov    $0x0,%eax
  40067d:	e8 0e fe ff ff       	callq  400490 <printf@plt>
		iter = iter->next;
  400682:	48 8b 45 e8          	mov    -0x18(%rbp),%rax
  400686:	48 8b 40 08          	mov    0x8(%rax),%rax
  40068a:	48 89 45 e8          	mov    %rax,-0x18(%rbp)
		iter = iter->next;
	}

	printf("Printing all nodes\n");
	iter = &(head->list);	
	while(iter){
  40068e:	48 83 7d e8 00       	cmpq   $0x0,-0x18(%rbp)
  400693:	75 d6                	jne    40066b <main+0xae>
		iter = iter->next;
	}

	// Leak

	return 0;
  400695:	b8 00 00 00 00       	mov    $0x0,%eax
}
  40069a:	c9                   	leaveq 
  40069b:	c3                   	retq   
  40069c:	0f 1f 40 00          	nopl   0x0(%rax)

00000000004006a0 <__libc_csu_init>:
  4006a0:	41 57                	push   %r15
  4006a2:	41 89 ff             	mov    %edi,%r15d
  4006a5:	41 56                	push   %r14
  4006a7:	49 89 f6             	mov    %rsi,%r14
  4006aa:	41 55                	push   %r13
  4006ac:	49 89 d5             	mov    %rdx,%r13
  4006af:	41 54                	push   %r12
  4006b1:	4c 8d 25 58 07 20 00 	lea    0x200758(%rip),%r12        # 600e10 <__frame_dummy_init_array_entry>
  4006b8:	55                   	push   %rbp
  4006b9:	48 8d 2d 58 07 20 00 	lea    0x200758(%rip),%rbp        # 600e18 <__init_array_end>
  4006c0:	53                   	push   %rbx
  4006c1:	4c 29 e5             	sub    %r12,%rbp
  4006c4:	31 db                	xor    %ebx,%ebx
  4006c6:	48 c1 fd 03          	sar    $0x3,%rbp
  4006ca:	48 83 ec 08          	sub    $0x8,%rsp
  4006ce:	e8 7d fd ff ff       	callq  400450 <_init>
  4006d3:	48 85 ed             	test   %rbp,%rbp
  4006d6:	74 1e                	je     4006f6 <__libc_csu_init+0x56>
  4006d8:	0f 1f 84 00 00 00 00 	nopl   0x0(%rax,%rax,1)
  4006df:	00 
  4006e0:	4c 89 ea             	mov    %r13,%rdx
  4006e3:	4c 89 f6             	mov    %r14,%rsi
  4006e6:	44 89 ff             	mov    %r15d,%edi
  4006e9:	41 ff 14 dc          	callq  *(%r12,%rbx,8)
  4006ed:	48 83 c3 01          	add    $0x1,%rbx
  4006f1:	48 39 eb             	cmp    %rbp,%rbx
  4006f4:	75 ea                	jne    4006e0 <__libc_csu_init+0x40>
  4006f6:	48 83 c4 08          	add    $0x8,%rsp
  4006fa:	5b                   	pop    %rbx
  4006fb:	5d                   	pop    %rbp
  4006fc:	41 5c                	pop    %r12
  4006fe:	41 5d                	pop    %r13
  400700:	41 5e                	pop    %r14
  400702:	41 5f                	pop    %r15
  400704:	c3                   	retq   
  400705:	66 66 2e 0f 1f 84 00 	data32 nopw %cs:0x0(%rax,%rax,1)
  40070c:	00 00 00 00 

0000000000400710 <__libc_csu_fini>:
  400710:	f3 c3                	repz retq 

Disassembly of section .fini:

0000000000400714 <_fini>:
  400714:	48 83 ec 08          	sub    $0x8,%rsp
  400718:	48 83 c4 08          	add    $0x8,%rsp
  40071c:	c3                   	retq   
