
sll-with-slls:     file format elf64-x86-64


Disassembly of section .init:

0000000000400450 <_init>:
  400450:	48 83 ec 08          	sub    $0x8,%rsp
  400454:	48 8b 05 9d 0b 20 00 	mov    0x200b9d(%rip),%rax        # 600ff8 <_DYNAMIC+0x1d0>
  40045b:	48 85 c0             	test   %rax,%rax
  40045e:	74 05                	je     400465 <_init+0x15>
  400460:	e8 3b 00 00 00       	callq  4004a0 <__gmon_start__@plt>
  400465:	48 83 c4 08          	add    $0x8,%rsp
  400469:	c3                   	retq   

Disassembly of section .plt:

0000000000400470 <puts@plt-0x10>:
  400470:	ff 35 92 0b 20 00    	pushq  0x200b92(%rip)        # 601008 <_GLOBAL_OFFSET_TABLE_+0x8>
  400476:	ff 25 94 0b 20 00    	jmpq   *0x200b94(%rip)        # 601010 <_GLOBAL_OFFSET_TABLE_+0x10>
  40047c:	0f 1f 40 00          	nopl   0x0(%rax)

0000000000400480 <puts@plt>:
  400480:	ff 25 92 0b 20 00    	jmpq   *0x200b92(%rip)        # 601018 <_GLOBAL_OFFSET_TABLE_+0x18>
  400486:	68 00 00 00 00       	pushq  $0x0
  40048b:	e9 e0 ff ff ff       	jmpq   400470 <_init+0x20>

0000000000400490 <__libc_start_main@plt>:
  400490:	ff 25 8a 0b 20 00    	jmpq   *0x200b8a(%rip)        # 601020 <_GLOBAL_OFFSET_TABLE_+0x20>
  400496:	68 01 00 00 00       	pushq  $0x1
  40049b:	e9 d0 ff ff ff       	jmpq   400470 <_init+0x20>

00000000004004a0 <__gmon_start__@plt>:
  4004a0:	ff 25 82 0b 20 00    	jmpq   *0x200b82(%rip)        # 601028 <_GLOBAL_OFFSET_TABLE_+0x28>
  4004a6:	68 02 00 00 00       	pushq  $0x2
  4004ab:	e9 c0 ff ff ff       	jmpq   400470 <_init+0x20>

00000000004004b0 <malloc@plt>:
  4004b0:	ff 25 7a 0b 20 00    	jmpq   *0x200b7a(%rip)        # 601030 <_GLOBAL_OFFSET_TABLE_+0x30>
  4004b6:	68 03 00 00 00       	pushq  $0x3
  4004bb:	e9 b0 ff ff ff       	jmpq   400470 <_init+0x20>

00000000004004c0 <exit@plt>:
  4004c0:	ff 25 72 0b 20 00    	jmpq   *0x200b72(%rip)        # 601038 <_GLOBAL_OFFSET_TABLE_+0x38>
  4004c6:	68 04 00 00 00       	pushq  $0x4
  4004cb:	e9 a0 ff ff ff       	jmpq   400470 <_init+0x20>

Disassembly of section .text:

00000000004004d0 <_start>:
  4004d0:	31 ed                	xor    %ebp,%ebp
  4004d2:	49 89 d1             	mov    %rdx,%r9
  4004d5:	5e                   	pop    %rsi
  4004d6:	48 89 e2             	mov    %rsp,%rdx
  4004d9:	48 83 e4 f0          	and    $0xfffffffffffffff0,%rsp
  4004dd:	50                   	push   %rax
  4004de:	54                   	push   %rsp
  4004df:	49 c7 c0 80 07 40 00 	mov    $0x400780,%r8
  4004e6:	48 c7 c1 10 07 40 00 	mov    $0x400710,%rcx
  4004ed:	48 c7 c7 9e 06 40 00 	mov    $0x40069e,%rdi
  4004f4:	e8 97 ff ff ff       	callq  400490 <__libc_start_main@plt>
  4004f9:	f4                   	hlt    
  4004fa:	66 0f 1f 44 00 00    	nopw   0x0(%rax,%rax,1)

0000000000400500 <deregister_tm_clones>:
  400500:	b8 57 10 60 00       	mov    $0x601057,%eax
  400505:	55                   	push   %rbp
  400506:	48 2d 50 10 60 00    	sub    $0x601050,%rax
  40050c:	48 83 f8 0e          	cmp    $0xe,%rax
  400510:	48 89 e5             	mov    %rsp,%rbp
  400513:	77 02                	ja     400517 <deregister_tm_clones+0x17>
  400515:	5d                   	pop    %rbp
  400516:	c3                   	retq   
  400517:	b8 00 00 00 00       	mov    $0x0,%eax
  40051c:	48 85 c0             	test   %rax,%rax
  40051f:	74 f4                	je     400515 <deregister_tm_clones+0x15>
  400521:	5d                   	pop    %rbp
  400522:	bf 50 10 60 00       	mov    $0x601050,%edi
  400527:	ff e0                	jmpq   *%rax
  400529:	0f 1f 80 00 00 00 00 	nopl   0x0(%rax)

0000000000400530 <register_tm_clones>:
  400530:	b8 50 10 60 00       	mov    $0x601050,%eax
  400535:	55                   	push   %rbp
  400536:	48 2d 50 10 60 00    	sub    $0x601050,%rax
  40053c:	48 c1 f8 03          	sar    $0x3,%rax
  400540:	48 89 e5             	mov    %rsp,%rbp
  400543:	48 89 c2             	mov    %rax,%rdx
  400546:	48 c1 ea 3f          	shr    $0x3f,%rdx
  40054a:	48 01 d0             	add    %rdx,%rax
  40054d:	48 d1 f8             	sar    %rax
  400550:	75 02                	jne    400554 <register_tm_clones+0x24>
  400552:	5d                   	pop    %rbp
  400553:	c3                   	retq   
  400554:	ba 00 00 00 00       	mov    $0x0,%edx
  400559:	48 85 d2             	test   %rdx,%rdx
  40055c:	74 f4                	je     400552 <register_tm_clones+0x22>
  40055e:	5d                   	pop    %rbp
  40055f:	48 89 c6             	mov    %rax,%rsi
  400562:	bf 50 10 60 00       	mov    $0x601050,%edi
  400567:	ff e2                	jmpq   *%rdx
  400569:	0f 1f 80 00 00 00 00 	nopl   0x0(%rax)

0000000000400570 <__do_global_dtors_aux>:
  400570:	80 3d d9 0a 20 00 00 	cmpb   $0x0,0x200ad9(%rip)        # 601050 <__TMC_END__>
  400577:	75 11                	jne    40058a <__do_global_dtors_aux+0x1a>
  400579:	55                   	push   %rbp
  40057a:	48 89 e5             	mov    %rsp,%rbp
  40057d:	e8 7e ff ff ff       	callq  400500 <deregister_tm_clones>
  400582:	5d                   	pop    %rbp
  400583:	c6 05 c6 0a 20 00 01 	movb   $0x1,0x200ac6(%rip)        # 601050 <__TMC_END__>
  40058a:	f3 c3                	repz retq 
  40058c:	0f 1f 40 00          	nopl   0x0(%rax)

0000000000400590 <frame_dummy>:
  400590:	48 83 3d 88 08 20 00 	cmpq   $0x0,0x200888(%rip)        # 600e20 <__JCR_END__>
  400597:	00 
  400598:	74 1e                	je     4005b8 <frame_dummy+0x28>
  40059a:	b8 00 00 00 00       	mov    $0x0,%eax
  40059f:	48 85 c0             	test   %rax,%rax
  4005a2:	74 14                	je     4005b8 <frame_dummy+0x28>
  4005a4:	55                   	push   %rbp
  4005a5:	bf 20 0e 60 00       	mov    $0x600e20,%edi
  4005aa:	48 89 e5             	mov    %rsp,%rbp
  4005ad:	ff d0                	callq  *%rax
  4005af:	5d                   	pop    %rbp
  4005b0:	e9 7b ff ff ff       	jmpq   400530 <register_tm_clones>
  4005b5:	0f 1f 00             	nopl   (%rax)
  4005b8:	e9 73 ff ff ff       	jmpq   400530 <register_tm_clones>

00000000004005bd <create_parent>:
  4005bd:	55                   	push   %rbp
  4005be:	48 89 e5             	mov    %rsp,%rbp
  4005c1:	48 83 ec 20          	sub    $0x20,%rsp
  4005c5:	48 89 7d e8          	mov    %rdi,-0x18(%rbp)
  4005c9:	89 75 e4             	mov    %esi,-0x1c(%rbp)
  4005cc:	c7 45 fc 00 00 00 00 	movl   $0x0,-0x4(%rbp)
  4005d3:	eb 4c                	jmp    400621 <create_parent+0x64>
  4005d5:	bf 18 00 00 00       	mov    $0x18,%edi
  4005da:	e8 d1 fe ff ff       	callq  4004b0 <malloc@plt>
  4005df:	48 89 c2             	mov    %rax,%rdx
  4005e2:	48 8b 45 e8          	mov    -0x18(%rbp),%rax
  4005e6:	48 89 10             	mov    %rdx,(%rax)
  4005e9:	48 83 7d e8 00       	cmpq   $0x0,-0x18(%rbp)
  4005ee:	75 14                	jne    400604 <create_parent+0x47>
  4005f0:	bf 98 07 40 00       	mov    $0x400798,%edi
  4005f5:	e8 86 fe ff ff       	callq  400480 <puts@plt>
  4005fa:	bf 01 00 00 00       	mov    $0x1,%edi
  4005ff:	e8 bc fe ff ff       	callq  4004c0 <exit@plt>
  400604:	48 8b 45 e8          	mov    -0x18(%rbp),%rax
  400608:	48 8b 00             	mov    (%rax),%rax
  40060b:	48 c7 00 00 00 00 00 	movq   $0x0,(%rax)
  400612:	48 8b 45 e8          	mov    -0x18(%rbp),%rax
  400616:	48 8b 00             	mov    (%rax),%rax
  400619:	48 89 45 e8          	mov    %rax,-0x18(%rbp)
  40061d:	83 45 fc 01          	addl   $0x1,-0x4(%rbp)
  400621:	8b 45 fc             	mov    -0x4(%rbp),%eax
  400624:	3b 45 e4             	cmp    -0x1c(%rbp),%eax
  400627:	7c ac                	jl     4005d5 <create_parent+0x18>
  400629:	c9                   	leaveq 
  40062a:	c3                   	retq   

000000000040062b <create_child>:
  40062b:	55                   	push   %rbp
  40062c:	48 89 e5             	mov    %rsp,%rbp
  40062f:	48 83 ec 20          	sub    $0x20,%rsp
  400633:	48 89 7d e8          	mov    %rdi,-0x18(%rbp)
  400637:	89 75 e4             	mov    %esi,-0x1c(%rbp)
  40063a:	c7 45 fc 00 00 00 00 	movl   $0x0,-0x4(%rbp)
  400641:	eb 51                	jmp    400694 <create_child+0x69>
  400643:	bf 10 00 00 00       	mov    $0x10,%edi
  400648:	e8 63 fe ff ff       	callq  4004b0 <malloc@plt>
  40064d:	48 89 c2             	mov    %rax,%rdx
  400650:	48 8b 45 e8          	mov    -0x18(%rbp),%rax
  400654:	48 89 10             	mov    %rdx,(%rax)
  400657:	48 83 7d e8 00       	cmpq   $0x0,-0x18(%rbp)
  40065c:	75 14                	jne    400672 <create_child+0x47>
  40065e:	bf 98 07 40 00       	mov    $0x400798,%edi
  400663:	e8 18 fe ff ff       	callq  400480 <puts@plt>
  400668:	bf 01 00 00 00       	mov    $0x1,%edi
  40066d:	e8 4e fe ff ff       	callq  4004c0 <exit@plt>
  400672:	48 8b 45 e8          	mov    -0x18(%rbp),%rax
  400676:	48 8b 00             	mov    (%rax),%rax
  400679:	48 c7 40 08 00 00 00 	movq   $0x0,0x8(%rax)
  400680:	00 
  400681:	48 8b 45 e8          	mov    -0x18(%rbp),%rax
  400685:	48 8b 00             	mov    (%rax),%rax
  400688:	48 83 c0 08          	add    $0x8,%rax
  40068c:	48 89 45 e8          	mov    %rax,-0x18(%rbp)
  400690:	83 45 fc 01          	addl   $0x1,-0x4(%rbp)
  400694:	8b 45 fc             	mov    -0x4(%rbp),%eax
  400697:	3b 45 e4             	cmp    -0x1c(%rbp),%eax
  40069a:	7c a7                	jl     400643 <create_child+0x18>
  40069c:	c9                   	leaveq 
  40069d:	c3                   	retq   

000000000040069e <main>:
  40069e:	55                   	push   %rbp
  40069f:	48 89 e5             	mov    %rsp,%rbp
  4006a2:	48 83 ec 30          	sub    $0x30,%rsp
  4006a6:	89 7d dc             	mov    %edi,-0x24(%rbp)
  4006a9:	48 89 75 d0          	mov    %rsi,-0x30(%rbp)
  4006ad:	c7 45 e8 07 00 00 00 	movl   $0x7,-0x18(%rbp)
  4006b4:	c7 45 ec 02 00 00 00 	movl   $0x2,-0x14(%rbp)
  4006bb:	8b 55 e8             	mov    -0x18(%rbp),%edx
  4006be:	48 8d 45 f0          	lea    -0x10(%rbp),%rax
  4006c2:	89 d6                	mov    %edx,%esi
  4006c4:	48 89 c7             	mov    %rax,%rdi
  4006c7:	e8 f1 fe ff ff       	callq  4005bd <create_parent>
  4006cc:	48 8b 45 f0          	mov    -0x10(%rbp),%rax
  4006d0:	48 89 45 f8          	mov    %rax,-0x8(%rbp)
  4006d4:	c7 45 e4 00 00 00 00 	movl   $0x0,-0x1c(%rbp)
  4006db:	eb 24                	jmp    400701 <main+0x63>
  4006dd:	48 8b 45 f8          	mov    -0x8(%rbp),%rax
  4006e1:	48 8d 50 10          	lea    0x10(%rax),%rdx
  4006e5:	8b 45 ec             	mov    -0x14(%rbp),%eax
  4006e8:	89 c6                	mov    %eax,%esi
  4006ea:	48 89 d7             	mov    %rdx,%rdi
  4006ed:	e8 39 ff ff ff       	callq  40062b <create_child>
  4006f2:	48 8b 45 f8          	mov    -0x8(%rbp),%rax
  4006f6:	48 8b 00             	mov    (%rax),%rax
  4006f9:	48 89 45 f8          	mov    %rax,-0x8(%rbp)
  4006fd:	83 45 e4 01          	addl   $0x1,-0x1c(%rbp)
  400701:	8b 45 e4             	mov    -0x1c(%rbp),%eax
  400704:	3b 45 e8             	cmp    -0x18(%rbp),%eax
  400707:	7c d4                	jl     4006dd <main+0x3f>
  400709:	b8 00 00 00 00       	mov    $0x0,%eax
  40070e:	c9                   	leaveq 
  40070f:	c3                   	retq   

0000000000400710 <__libc_csu_init>:
  400710:	41 57                	push   %r15
  400712:	41 89 ff             	mov    %edi,%r15d
  400715:	41 56                	push   %r14
  400717:	49 89 f6             	mov    %rsi,%r14
  40071a:	41 55                	push   %r13
  40071c:	49 89 d5             	mov    %rdx,%r13
  40071f:	41 54                	push   %r12
  400721:	4c 8d 25 e8 06 20 00 	lea    0x2006e8(%rip),%r12        # 600e10 <__frame_dummy_init_array_entry>
  400728:	55                   	push   %rbp
  400729:	48 8d 2d e8 06 20 00 	lea    0x2006e8(%rip),%rbp        # 600e18 <__init_array_end>
  400730:	53                   	push   %rbx
  400731:	4c 29 e5             	sub    %r12,%rbp
  400734:	31 db                	xor    %ebx,%ebx
  400736:	48 c1 fd 03          	sar    $0x3,%rbp
  40073a:	48 83 ec 08          	sub    $0x8,%rsp
  40073e:	e8 0d fd ff ff       	callq  400450 <_init>
  400743:	48 85 ed             	test   %rbp,%rbp
  400746:	74 1e                	je     400766 <__libc_csu_init+0x56>
  400748:	0f 1f 84 00 00 00 00 	nopl   0x0(%rax,%rax,1)
  40074f:	00 
  400750:	4c 89 ea             	mov    %r13,%rdx
  400753:	4c 89 f6             	mov    %r14,%rsi
  400756:	44 89 ff             	mov    %r15d,%edi
  400759:	41 ff 14 dc          	callq  *(%r12,%rbx,8)
  40075d:	48 83 c3 01          	add    $0x1,%rbx
  400761:	48 39 eb             	cmp    %rbp,%rbx
  400764:	75 ea                	jne    400750 <__libc_csu_init+0x40>
  400766:	48 83 c4 08          	add    $0x8,%rsp
  40076a:	5b                   	pop    %rbx
  40076b:	5d                   	pop    %rbp
  40076c:	41 5c                	pop    %r12
  40076e:	41 5d                	pop    %r13
  400770:	41 5e                	pop    %r14
  400772:	41 5f                	pop    %r15
  400774:	c3                   	retq   
  400775:	66 66 2e 0f 1f 84 00 	data32 nopw %cs:0x0(%rax,%rax,1)
  40077c:	00 00 00 00 

0000000000400780 <__libc_csu_fini>:
  400780:	f3 c3                	repz retq 

Disassembly of section .fini:

0000000000400784 <_fini>:
  400784:	48 83 ec 08          	sub    $0x8,%rsp
  400788:	48 83 c4 08          	add    $0x8,%rsp
  40078c:	c3                   	retq   
