
stack-heap-mix/stack-heap-mix:     file format elf64-x86-64


Disassembly of section .init:

0000000000400450 <_init>:
  400450:	48 83 ec 08          	sub    $0x8,%rsp
  400454:	48 8b 05 9d 0b 20 00 	mov    0x200b9d(%rip),%rax        # 600ff8 <_DYNAMIC+0x1d0>
  40045b:	48 85 c0             	test   %rax,%rax
  40045e:	74 05                	je     400465 <_init+0x15>
  400460:	e8 4b 00 00 00       	callq  4004b0 <__gmon_start__@plt>
  400465:	48 83 c4 08          	add    $0x8,%rsp
  400469:	c3                   	retq   

Disassembly of section .plt:

0000000000400470 <puts@plt-0x10>:
  400470:	ff 35 92 0b 20 00    	pushq  0x200b92(%rip)        # 601008 <_GLOBAL_OFFSET_TABLE_+0x8>
  400476:	ff 25 94 0b 20 00    	jmpq   *0x200b94(%rip)        # 601010 <_GLOBAL_OFFSET_TABLE_+0x10>
  40047c:	0f 1f 40 00          	nopl   0x0(%rax)

0000000000400480 <puts@plt>:
  400480:	ff 25 92 0b 20 00    	jmpq   *0x200b92(%rip)        # 601018 <_GLOBAL_OFFSET_TABLE_+0x18>
  400486:	68 00 00 00 00       	pushq  $0x0
  40048b:	e9 e0 ff ff ff       	jmpq   400470 <_init+0x20>

0000000000400490 <printf@plt>:
  400490:	ff 25 8a 0b 20 00    	jmpq   *0x200b8a(%rip)        # 601020 <_GLOBAL_OFFSET_TABLE_+0x20>
  400496:	68 01 00 00 00       	pushq  $0x1
  40049b:	e9 d0 ff ff ff       	jmpq   400470 <_init+0x20>

00000000004004a0 <__libc_start_main@plt>:
  4004a0:	ff 25 82 0b 20 00    	jmpq   *0x200b82(%rip)        # 601028 <_GLOBAL_OFFSET_TABLE_+0x28>
  4004a6:	68 02 00 00 00       	pushq  $0x2
  4004ab:	e9 c0 ff ff ff       	jmpq   400470 <_init+0x20>

00000000004004b0 <__gmon_start__@plt>:
  4004b0:	ff 25 7a 0b 20 00    	jmpq   *0x200b7a(%rip)        # 601030 <_GLOBAL_OFFSET_TABLE_+0x30>
  4004b6:	68 03 00 00 00       	pushq  $0x3
  4004bb:	e9 b0 ff ff ff       	jmpq   400470 <_init+0x20>

00000000004004c0 <malloc@plt>:
  4004c0:	ff 25 72 0b 20 00    	jmpq   *0x200b72(%rip)        # 601038 <_GLOBAL_OFFSET_TABLE_+0x38>
  4004c6:	68 04 00 00 00       	pushq  $0x4
  4004cb:	e9 a0 ff ff ff       	jmpq   400470 <_init+0x20>

Disassembly of section .text:

00000000004004d0 <_start>:
  4004d0:	31 ed                	xor    %ebp,%ebp
  4004d2:	49 89 d1             	mov    %rdx,%r9
  4004d5:	5e                   	pop    %rsi
  4004d6:	48 89 e2             	mov    %rsp,%rdx
  4004d9:	48 83 e4 f0          	and    $0xfffffffffffffff0,%rsp
  4004dd:	50                   	push   %rax
  4004de:	54                   	push   %rsp
  4004df:	49 c7 c0 20 07 40 00 	mov    $0x400720,%r8
  4004e6:	48 c7 c1 b0 06 40 00 	mov    $0x4006b0,%rcx
  4004ed:	48 c7 c7 6e 06 40 00 	mov    $0x40066e,%rdi
  4004f4:	e8 a7 ff ff ff       	callq  4004a0 <__libc_start_main@plt>
  4004f9:	f4                   	hlt    
  4004fa:	66 0f 1f 44 00 00    	nopw   0x0(%rax,%rax,1)

0000000000400500 <deregister_tm_clones>:
  400500:	b8 57 10 60 00       	mov    $0x601057,%eax
  400505:	55                   	push   %rbp
  400506:	48 2d 50 10 60 00    	sub    $0x601050,%rax
  40050c:	48 83 f8 0e          	cmp    $0xe,%rax
  400510:	48 89 e5             	mov    %rsp,%rbp
  400513:	77 02                	ja     400517 <deregister_tm_clones+0x17>
  400515:	5d                   	pop    %rbp
  400516:	c3                   	retq   
  400517:	b8 00 00 00 00       	mov    $0x0,%eax
  40051c:	48 85 c0             	test   %rax,%rax
  40051f:	74 f4                	je     400515 <deregister_tm_clones+0x15>
  400521:	5d                   	pop    %rbp
  400522:	bf 50 10 60 00       	mov    $0x601050,%edi
  400527:	ff e0                	jmpq   *%rax
  400529:	0f 1f 80 00 00 00 00 	nopl   0x0(%rax)

0000000000400530 <register_tm_clones>:
  400530:	b8 50 10 60 00       	mov    $0x601050,%eax
  400535:	55                   	push   %rbp
  400536:	48 2d 50 10 60 00    	sub    $0x601050,%rax
  40053c:	48 c1 f8 03          	sar    $0x3,%rax
  400540:	48 89 e5             	mov    %rsp,%rbp
  400543:	48 89 c2             	mov    %rax,%rdx
  400546:	48 c1 ea 3f          	shr    $0x3f,%rdx
  40054a:	48 01 d0             	add    %rdx,%rax
  40054d:	48 d1 f8             	sar    %rax
  400550:	75 02                	jne    400554 <register_tm_clones+0x24>
  400552:	5d                   	pop    %rbp
  400553:	c3                   	retq   
  400554:	ba 00 00 00 00       	mov    $0x0,%edx
  400559:	48 85 d2             	test   %rdx,%rdx
  40055c:	74 f4                	je     400552 <register_tm_clones+0x22>
  40055e:	5d                   	pop    %rbp
  40055f:	48 89 c6             	mov    %rax,%rsi
  400562:	bf 50 10 60 00       	mov    $0x601050,%edi
  400567:	ff e2                	jmpq   *%rdx
  400569:	0f 1f 80 00 00 00 00 	nopl   0x0(%rax)

0000000000400570 <__do_global_dtors_aux>:
  400570:	80 3d d9 0a 20 00 00 	cmpb   $0x0,0x200ad9(%rip)        # 601050 <__TMC_END__>
  400577:	75 11                	jne    40058a <__do_global_dtors_aux+0x1a>
  400579:	55                   	push   %rbp
  40057a:	48 89 e5             	mov    %rsp,%rbp
  40057d:	e8 7e ff ff ff       	callq  400500 <deregister_tm_clones>
  400582:	5d                   	pop    %rbp
  400583:	c6 05 c6 0a 20 00 01 	movb   $0x1,0x200ac6(%rip)        # 601050 <__TMC_END__>
  40058a:	f3 c3                	repz retq 
  40058c:	0f 1f 40 00          	nopl   0x0(%rax)

0000000000400590 <frame_dummy>:
  400590:	48 83 3d 88 08 20 00 	cmpq   $0x0,0x200888(%rip)        # 600e20 <__JCR_END__>
  400597:	00 
  400598:	74 1e                	je     4005b8 <frame_dummy+0x28>
  40059a:	b8 00 00 00 00       	mov    $0x0,%eax
  40059f:	48 85 c0             	test   %rax,%rax
  4005a2:	74 14                	je     4005b8 <frame_dummy+0x28>
  4005a4:	55                   	push   %rbp
  4005a5:	bf 20 0e 60 00       	mov    $0x600e20,%edi
  4005aa:	48 89 e5             	mov    %rsp,%rbp
  4005ad:	ff d0                	callq  *%rax
  4005af:	5d                   	pop    %rbp
  4005b0:	e9 7b ff ff ff       	jmpq   400530 <register_tm_clones>
  4005b5:	0f 1f 00             	nopl   (%rax)
  4005b8:	e9 73 ff ff ff       	jmpq   400530 <register_tm_clones>

00000000004005bd <create_list>:
typedef struct _link_node {
	int payload;
	struct _link_node *next;
} link_node;	

void create_list(link_node *head) {
  4005bd:	55                   	push   %rbp
  4005be:	48 89 e5             	mov    %rsp,%rbp
  4005c1:	48 83 ec 20          	sub    $0x20,%rsp
  4005c5:	48 89 7d e8          	mov    %rdi,-0x18(%rbp)
	printf("create_list: entered\n");
  4005c9:	bf 38 07 40 00       	mov    $0x400738,%edi
  4005ce:	e8 ad fe ff ff       	callq  400480 <puts@plt>
	int i,no_elems = 4;
  4005d3:	c7 45 f4 04 00 00 00 	movl   $0x4,-0xc(%rbp)
	for(i = 0; i < no_elems; i++) {
  4005da:	c7 45 f0 00 00 00 00 	movl   $0x0,-0x10(%rbp)
  4005e1:	eb 42                	jmp    400625 <create_list+0x68>
		link_node *tmp = head->next;
  4005e3:	48 8b 45 e8          	mov    -0x18(%rbp),%rax
  4005e7:	48 8b 40 08          	mov    0x8(%rax),%rax
  4005eb:	48 89 45 f8          	mov    %rax,-0x8(%rbp)
		head->next = malloc(sizeof(link_node));
  4005ef:	bf 10 00 00 00       	mov    $0x10,%edi
  4005f4:	e8 c7 fe ff ff       	callq  4004c0 <malloc@plt>
  4005f9:	48 89 c2             	mov    %rax,%rdx
  4005fc:	48 8b 45 e8          	mov    -0x18(%rbp),%rax
  400600:	48 89 50 08          	mov    %rdx,0x8(%rax)
		head->next->payload = i;
  400604:	48 8b 45 e8          	mov    -0x18(%rbp),%rax
  400608:	48 8b 40 08          	mov    0x8(%rax),%rax
  40060c:	8b 55 f0             	mov    -0x10(%rbp),%edx
  40060f:	89 10                	mov    %edx,(%rax)
		head->next->next = tmp;
  400611:	48 8b 45 e8          	mov    -0x18(%rbp),%rax
  400615:	48 8b 40 08          	mov    0x8(%rax),%rax
  400619:	48 8b 55 f8          	mov    -0x8(%rbp),%rdx
  40061d:	48 89 50 08          	mov    %rdx,0x8(%rax)
} link_node;	

void create_list(link_node *head) {
	printf("create_list: entered\n");
	int i,no_elems = 4;
	for(i = 0; i < no_elems; i++) {
  400621:	83 45 f0 01          	addl   $0x1,-0x10(%rbp)
  400625:	8b 45 f0             	mov    -0x10(%rbp),%eax
  400628:	3b 45 f4             	cmp    -0xc(%rbp),%eax
  40062b:	7c b6                	jl     4005e3 <create_list+0x26>
		link_node *tmp = head->next;
		head->next = malloc(sizeof(link_node));
		head->next->payload = i;
		head->next->next = tmp;
	}
}
  40062d:	c9                   	leaveq 
  40062e:	c3                   	retq   

000000000040062f <print_list>:

void print_list(link_node *head){
  40062f:	55                   	push   %rbp
  400630:	48 89 e5             	mov    %rsp,%rbp
  400633:	48 83 ec 10          	sub    $0x10,%rsp
  400637:	48 89 7d f8          	mov    %rdi,-0x8(%rbp)
	while(head != NULL){
  40063b:	eb 28                	jmp    400665 <print_list+0x36>
		printf("print_list: element %p - payload: %d\n", head, head->payload);
  40063d:	48 8b 45 f8          	mov    -0x8(%rbp),%rax
  400641:	8b 10                	mov    (%rax),%edx
  400643:	48 8b 45 f8          	mov    -0x8(%rbp),%rax
  400647:	48 89 c6             	mov    %rax,%rsi
  40064a:	bf 50 07 40 00       	mov    $0x400750,%edi
  40064f:	b8 00 00 00 00       	mov    $0x0,%eax
  400654:	e8 37 fe ff ff       	callq  400490 <printf@plt>
		head = head->next;
  400659:	48 8b 45 f8          	mov    -0x8(%rbp),%rax
  40065d:	48 8b 40 08          	mov    0x8(%rax),%rax
  400661:	48 89 45 f8          	mov    %rax,-0x8(%rbp)
		head->next->next = tmp;
	}
}

void print_list(link_node *head){
	while(head != NULL){
  400665:	48 83 7d f8 00       	cmpq   $0x0,-0x8(%rbp)
  40066a:	75 d1                	jne    40063d <print_list+0xe>
		printf("print_list: element %p - payload: %d\n", head, head->payload);
		head = head->next;
	}
}
  40066c:	c9                   	leaveq 
  40066d:	c3                   	retq   

000000000040066e <main>:

int main(int argc, char **argv) {    
  40066e:	55                   	push   %rbp
  40066f:	48 89 e5             	mov    %rsp,%rbp
  400672:	48 83 ec 20          	sub    $0x20,%rsp
  400676:	89 7d ec             	mov    %edi,-0x14(%rbp)
  400679:	48 89 75 e0          	mov    %rsi,-0x20(%rbp)

	link_node static_head;
	static_head.payload = -4711;
  40067d:	c7 45 f0 99 ed ff ff 	movl   $0xffffed99,-0x10(%rbp)

	// Create list 
	create_list(&static_head);
  400684:	48 8d 45 f0          	lea    -0x10(%rbp),%rax
  400688:	48 89 c7             	mov    %rax,%rdi
  40068b:	e8 2d ff ff ff       	callq  4005bd <create_list>

	print_list(&static_head);
  400690:	48 8d 45 f0          	lea    -0x10(%rbp),%rax
  400694:	48 89 c7             	mov    %rax,%rdi
  400697:	e8 93 ff ff ff       	callq  40062f <print_list>

	return 0;
  40069c:	b8 00 00 00 00       	mov    $0x0,%eax
}
  4006a1:	c9                   	leaveq 
  4006a2:	c3                   	retq   
  4006a3:	66 2e 0f 1f 84 00 00 	nopw   %cs:0x0(%rax,%rax,1)
  4006aa:	00 00 00 
  4006ad:	0f 1f 00             	nopl   (%rax)

00000000004006b0 <__libc_csu_init>:
  4006b0:	41 57                	push   %r15
  4006b2:	41 89 ff             	mov    %edi,%r15d
  4006b5:	41 56                	push   %r14
  4006b7:	49 89 f6             	mov    %rsi,%r14
  4006ba:	41 55                	push   %r13
  4006bc:	49 89 d5             	mov    %rdx,%r13
  4006bf:	41 54                	push   %r12
  4006c1:	4c 8d 25 48 07 20 00 	lea    0x200748(%rip),%r12        # 600e10 <__frame_dummy_init_array_entry>
  4006c8:	55                   	push   %rbp
  4006c9:	48 8d 2d 48 07 20 00 	lea    0x200748(%rip),%rbp        # 600e18 <__init_array_end>
  4006d0:	53                   	push   %rbx
  4006d1:	4c 29 e5             	sub    %r12,%rbp
  4006d4:	31 db                	xor    %ebx,%ebx
  4006d6:	48 c1 fd 03          	sar    $0x3,%rbp
  4006da:	48 83 ec 08          	sub    $0x8,%rsp
  4006de:	e8 6d fd ff ff       	callq  400450 <_init>
  4006e3:	48 85 ed             	test   %rbp,%rbp
  4006e6:	74 1e                	je     400706 <__libc_csu_init+0x56>
  4006e8:	0f 1f 84 00 00 00 00 	nopl   0x0(%rax,%rax,1)
  4006ef:	00 
  4006f0:	4c 89 ea             	mov    %r13,%rdx
  4006f3:	4c 89 f6             	mov    %r14,%rsi
  4006f6:	44 89 ff             	mov    %r15d,%edi
  4006f9:	41 ff 14 dc          	callq  *(%r12,%rbx,8)
  4006fd:	48 83 c3 01          	add    $0x1,%rbx
  400701:	48 39 eb             	cmp    %rbp,%rbx
  400704:	75 ea                	jne    4006f0 <__libc_csu_init+0x40>
  400706:	48 83 c4 08          	add    $0x8,%rsp
  40070a:	5b                   	pop    %rbx
  40070b:	5d                   	pop    %rbp
  40070c:	41 5c                	pop    %r12
  40070e:	41 5d                	pop    %r13
  400710:	41 5e                	pop    %r14
  400712:	41 5f                	pop    %r15
  400714:	c3                   	retq   
  400715:	66 66 2e 0f 1f 84 00 	data32 nopw %cs:0x0(%rax,%rax,1)
  40071c:	00 00 00 00 

0000000000400720 <__libc_csu_fini>:
  400720:	f3 c3                	repz retq 

Disassembly of section .fini:

0000000000400724 <_fini>:
  400724:	48 83 ec 08          	sub    $0x8,%rsp
  400728:	48 83 c4 08          	add    $0x8,%rsp
  40072c:	c3                   	retq   
